; Function Attrs: nounwind uwtable
define hidden ptr @SDL_CreateGPUDeviceWithProperties_REAL(i32 noundef %0) local_unnamed_addr #0 {
  %2 = tail call fastcc ptr @SDL_GPUSelectBackend(i32 noundef %0)
  %.not = icmp eq ptr %2, null
  br i1 %.not, label %14, label %3

3:                                                ; preds = %1
  %4 = tail call zeroext i1 @SDL_GetBooleanProperty_REAL(i32 noundef %0, ptr noundef nonnull @.str.1, i1 noundef zeroext true) #7
  %5 = tail call zeroext i1 @SDL_GetBooleanProperty_REAL(i32 noundef %0, ptr noundef nonnull @.str.2, i1 noundef zeroext false) #7
  %6 = getelementptr inbounds nuw i8, ptr %2, i64 16
  %7 = load ptr, ptr %6, align 8
  %8 = tail call ptr %7(i1 noundef zeroext %4, i1 noundef zeroext %5, i32 noundef %0) #7
  %.not15 = icmp eq ptr %8, null
  br i1 %.not15, label %14, label %9

9:                                                ; preds = %3
  %10 = zext i1 %4 to i8
  %11 = load ptr, ptr %2, align 8
  %12 = getelementptr inbounds nuw i8, ptr %8, i64 672
  store ptr %11, ptr %12, align 8
  %13 = getelementptr inbounds nuw i8, ptr %8, i64 684
  store i8 %10, ptr %13, align 4
  br label %14

14:                                               ; preds = %3, %9, %1
  %.0 = phi ptr [ %8, %9 ], [ null, %3 ], [ null, %1 ]
  ret ptr %.0
}